target datalayout = "e-m:e-p270:32:32-p271:32:32-p272:64:64-i64:64-i128:128-f80:128-n8:16:32:64-S128"
target triple = "x86_64-pc-linux-gnu"

%struct.OptContext = type { ptr, ptr, %struct.TCGTempSet, %struct.RBRootLeftCached, %struct.anon, i32 }
%struct.TCGTempSet = type { [8 x i64] }
%struct.RBRootLeftCached = type { %struct.RBRoot, ptr }
%struct.RBRoot = type { ptr }
%struct.anon = type { ptr, ptr }
%struct.TCGContext = type { ptr, ptr, ptr, ptr, ptr, i32, i32, i32, i32, i32, i32, i32, i8, i8, i8, i32, i32, i64, i64, i64, ptr, ptr, ptr, ptr, ptr, i64, ptr, ptr, ptr, ptr, %struct.anon.0, ptr, ptr, ptr, ptr, ptr, [6 x ptr], [6 x %struct.TCGTempSet], [512 x %struct.TCGTemp], %union.anon, %union.anon, %struct.anon.1, ptr, [32 x ptr], [512 x i16], ptr, [1 x %struct.__jmp_buf_tag] }
%struct.anon.0 = type { ptr, ptr }
%struct.TCGTemp = type { i64, i64, ptr, i64, ptr, i64, ptr }
%union.anon = type { %struct.QTailQLink }
%struct.QTailQLink = type { ptr, ptr }
%struct.anon.1 = type { ptr, ptr }
%struct.__jmp_buf_tag = type { [8 x i64], i32, %struct.__sigset_t }
%struct.__sigset_t = type { [16 x i64] }
%struct.TempOptInfo = type { i8, ptr, ptr, %struct.anon.3, i64, i64, i64 }
%struct.anon.3 = type { ptr, ptr }
%struct.MemCopyInfo = type { %struct.IntervalTreeNode, %struct.anon.4, ptr, i32 }
%struct.IntervalTreeNode = type { %struct.RBNode, i64, i64, i64 }
%struct.RBNode = type { i64, ptr, ptr }
%struct.anon.4 = type { ptr }

@tcg_ctx = external thread_local global ptr, align 8

; Function Attrs: nounwind sspstrong uwtable
define internal ptr @cmp_better_copy(ptr noundef %0, ptr noundef %1) #0 {
  %3 = alloca ptr, align 8
  %4 = alloca ptr, align 8
  store ptr %0, ptr %3, align 8
  store ptr %1, ptr %4, align 8
  %5 = load ptr, ptr %3, align 8
  %6 = load i64, ptr %5, align 8
  %7 = lshr i64 %6, 32
  %8 = and i64 %7, 7
  %9 = trunc i64 %8 to i32
  %10 = load ptr, ptr %4, align 8
  %11 = load i64, ptr %10, align 8
  %12 = lshr i64 %11, 32
  %13 = and i64 %12, 7
  %14 = trunc i64 %13 to i32
  %15 = icmp slt i32 %9, %14
  br i1 %15, label %16, label %18

16:                                               ; preds = %2
  %17 = load ptr, ptr %4, align 8
  br label %20

18:                                               ; preds = %2
  %19 = load ptr, ptr %3, align 8
  br label %20

20:                                               ; preds = %18, %16
  %21 = phi ptr [ %17, %16 ], [ %19, %18 ]
  ret ptr %21
}

; Function Attrs: inlinehint nounwind sspstrong uwtable
define internal zeroext i1 @temp_readonly(ptr noundef %0) #3 {
  %2 = alloca ptr, align 8
  store ptr %0, ptr %2, align 8
  %3 = load ptr, ptr %2, align 8
  %4 = load i64, ptr %3, align 8
  %5 = lshr i64 %4, 32
  %6 = and i64 %5, 7
  %7 = trunc i64 %6 to i32
  %8 = icmp sge i32 %7, 3
  ret i1 %8
}

; Function Attrs: inlinehint nounwind sspstrong uwtable
define internal ptr @ts_info(ptr noundef %0) #3 {
  %2 = alloca ptr, align 8
  store ptr %0, ptr %2, align 8
  %3 = load ptr, ptr %2, align 8
  %4 = getelementptr inbounds nuw %struct.TCGTemp, ptr %3, i32 0, i32 6
  %5 = load ptr, ptr %4, align 8
  ret ptr %5
}

; Function Attrs: nounwind sspstrong uwtable
define internal ptr @find_better_copy(ptr noundef %0) #0 {
  %2 = alloca ptr, align 8
  %3 = alloca ptr, align 8
  %4 = alloca ptr, align 8
  %5 = alloca ptr, align 8
  %6 = alloca i32, align 4
  store ptr %0, ptr %3, align 8
  call void @llvm.lifetime.start.p0(i64 8, ptr %4) #13
  store ptr null, ptr %4, align 8, !annotation !4
  call void @llvm.lifetime.start.p0(i64 8, ptr %5) #13
  store ptr null, ptr %5, align 8, !annotation !4
  %7 = load ptr, ptr %3, align 8
  %8 = call zeroext i1 @temp_readonly(ptr noundef %7)
  br i1 %8, label %9, label %11

9:                                                ; preds = %1
  %10 = load ptr, ptr %3, align 8
  store ptr %10, ptr %2, align 8
  store i32 1, ptr %6, align 4
  br label %32

11:                                               ; preds = %1
  %12 = load ptr, ptr %3, align 8
  store ptr %12, ptr %5, align 8
  %13 = load ptr, ptr %3, align 8
  %14 = call ptr @ts_info(ptr noundef %13)
  %15 = getelementptr inbounds nuw %struct.TempOptInfo, ptr %14, i32 0, i32 2
  %16 = load ptr, ptr %15, align 8
  store ptr %16, ptr %4, align 8
  br label %17

17:                                               ; preds = %25, %11
  %18 = load ptr, ptr %4, align 8
  %19 = load ptr, ptr %3, align 8
  %20 = icmp ne ptr %18, %19
  br i1 %20, label %21, label %30

21:                                               ; preds = %17
  %22 = load ptr, ptr %5, align 8
  %23 = load ptr, ptr %4, align 8
  %24 = call ptr @cmp_better_copy(ptr noundef %22, ptr noundef %23)
  store ptr %24, ptr %5, align 8
  br label %25

25:                                               ; preds = %21
  %26 = load ptr, ptr %4, align 8
  %27 = call ptr @ts_info(ptr noundef %26)
  %28 = getelementptr inbounds nuw %struct.TempOptInfo, ptr %27, i32 0, i32 2
  %29 = load ptr, ptr %28, align 8
  store ptr %29, ptr %4, align 8
  br label %17, !llvm.loop !18

30:                                               ; preds = %17
  %31 = load ptr, ptr %5, align 8
  store ptr %31, ptr %2, align 8
  store i32 1, ptr %6, align 4
  br label %32

32:                                               ; preds = %30, %9
  call void @llvm.lifetime.end.p0(i64 8, ptr %5) #13
  call void @llvm.lifetime.end.p0(i64 8, ptr %4) #13
  %33 = load ptr, ptr %2, align 8
  ret ptr %33
}

; Function Attrs: alwaysinline nounwind
define internal ptr @memset.inline(ptr nonnull %0, i32 %1, i64 %2) #11 {
  %4 = alloca ptr, align 8
  %5 = alloca i32, align 4
  %6 = alloca i64, align 8
  store ptr %0, ptr %4, align 8
  store i32 %1, ptr %5, align 4
  store i64 %2, ptr %6, align 8
  %7 = load ptr, ptr %4, align 8
  %8 = load i32, ptr %5, align 4
  %9 = load i64, ptr %6, align 8
  %10 = load ptr, ptr %4, align 8
  %11 = call i64 @llvm.objectsize.i64.p0(ptr %10, i1 false, i1 true, i1 false)
  %12 = call ptr @__memset_chk(ptr noundef %7, i32 noundef %8, i64 noundef %9, i64 noundef %11) #13
  ret ptr %12
}

; Function Attrs: inlinehint nounwind sspstrong uwtable
define internal ptr @tcg_malloc(i32 noundef %0) #3 {
  %2 = alloca ptr, align 8
  %3 = alloca i32, align 4
  %4 = alloca ptr, align 8
  %5 = alloca ptr, align 8
  %6 = alloca ptr, align 8
  %7 = alloca i32, align 4
  store i32 %0, ptr %3, align 4
  call void @llvm.lifetime.start.p0(i64 8, ptr %4) #13
  %8 = call align 8 ptr @llvm.threadlocal.address.p0(ptr align 8 @tcg_ctx)
  %9 = load ptr, ptr %8, align 8
  store ptr %9, ptr %4, align 8
  call void @llvm.lifetime.start.p0(i64 8, ptr %5) #13
  store ptr null, ptr %5, align 8, !annotation !4
  call void @llvm.lifetime.start.p0(i64 8, ptr %6) #13
  store ptr null, ptr %6, align 8, !annotation !4
  %10 = load i32, ptr %3, align 4
  %11 = add i32 %10, 8
  %12 = sub i32 %11, 1
  %13 = sdiv i32 %12, 8
  %14 = mul i32 %13, 8
  store i32 %14, ptr %3, align 4
  %15 = load ptr, ptr %4, align 8
  %16 = getelementptr inbounds nuw %struct.TCGContext, ptr %15, i32 0, i32 0
  %17 = load ptr, ptr %16, align 8
  store ptr %17, ptr %5, align 8
  %18 = load ptr, ptr %5, align 8
  %19 = load i32, ptr %3, align 4
  %20 = sext i32 %19 to i64
  %21 = getelementptr inbounds i8, ptr %18, i64 %20
  store ptr %21, ptr %6, align 8
  %22 = load ptr, ptr %6, align 8
  %23 = load ptr, ptr %4, align 8
  %24 = getelementptr inbounds nuw %struct.TCGContext, ptr %23, i32 0, i32 1
  %25 = load ptr, ptr %24, align 8
  %26 = icmp ugt ptr %22, %25
  %27 = xor i1 %26, true
  %28 = xor i1 %27, true
  %29 = zext i1 %28 to i32
  %30 = sext i32 %29 to i64
  %31 = call i64 @llvm.expect.i64(i64 %30, i64 0)
  %32 = icmp ne i64 %31, 0
  br i1 %32, label %33, label %38

33:                                               ; preds = %1
  %34 = call align 8 ptr @llvm.threadlocal.address.p0(ptr align 8 @tcg_ctx)
  %35 = load ptr, ptr %34, align 8
  %36 = load i32, ptr %3, align 4
  %37 = call ptr @tcg_malloc_internal(ptr noundef %35, i32 noundef %36)
  store ptr %37, ptr %2, align 8
  store i32 1, ptr %7, align 4
  br label %43

38:                                               ; preds = %1
  %39 = load ptr, ptr %6, align 8
  %40 = load ptr, ptr %4, align 8
  %41 = getelementptr inbounds nuw %struct.TCGContext, ptr %40, i32 0, i32 0
  store ptr %39, ptr %41, align 8
  %42 = load ptr, ptr %5, align 8
  store ptr %42, ptr %2, align 8
  store i32 1, ptr %7, align 4
  br label %43

43:                                               ; preds = %38, %33
  call void @llvm.lifetime.end.p0(i64 8, ptr %6) #13
  call void @llvm.lifetime.end.p0(i64 8, ptr %5) #13
  call void @llvm.lifetime.end.p0(i64 8, ptr %4) #13
  %44 = load ptr, ptr %2, align 8
  ret ptr %44
}

; Function Attrs: nounwind sspstrong uwtable
define internal void @record_mem_copy(ptr noundef %0, i32 noundef %1, ptr noundef %2, i64 noundef %3, i64 noundef %4) #0 {
  %6 = alloca ptr, align 8
  %7 = alloca i32, align 4
  %8 = alloca ptr, align 8
  %9 = alloca i64, align 8
  %10 = alloca i64, align 8
  %11 = alloca ptr, align 8
  %12 = alloca ptr, align 8
  %13 = alloca ptr, align 8
  store ptr %0, ptr %6, align 8
  store i32 %1, ptr %7, align 4
  store ptr %2, ptr %8, align 8
  store i64 %3, ptr %9, align 8
  store i64 %4, ptr %10, align 8
  call void @llvm.lifetime.start.p0(i64 8, ptr %11) #13
  store ptr null, ptr %11, align 8, !annotation !4
  call void @llvm.lifetime.start.p0(i64 8, ptr %12) #13
  store ptr null, ptr %12, align 8, !annotation !4
  %14 = load ptr, ptr %6, align 8
  %15 = getelementptr inbounds nuw %struct.OptContext, ptr %14, i32 0, i32 4
  %16 = getelementptr inbounds nuw %struct.anon, ptr %15, i32 0, i32 0
  %17 = load ptr, ptr %16, align 8
  store ptr %17, ptr %11, align 8
  %18 = load ptr, ptr %11, align 8
  %19 = icmp ne ptr %18, null
  br i1 %19, label %20, label %47

20:                                               ; preds = %5
  br label %21

21:                                               ; preds = %20
  call void @llvm.lifetime.start.p0(i64 8, ptr %13) #13
  %22 = load ptr, ptr %6, align 8
  %23 = getelementptr inbounds nuw %struct.OptContext, ptr %22, i32 0, i32 4
  %24 = getelementptr inbounds nuw %struct.anon, ptr %23, i32 0, i32 0
  %25 = load ptr, ptr %24, align 8
  store ptr %25, ptr %13, align 8
  %26 = load ptr, ptr %13, align 8
  %27 = getelementptr inbounds nuw %struct.MemCopyInfo, ptr %26, i32 0, i32 1
  %28 = getelementptr inbounds nuw %struct.anon.4, ptr %27, i32 0, i32 0
  %29 = load ptr, ptr %28, align 8
  %30 = load ptr, ptr %6, align 8
  %31 = getelementptr inbounds nuw %struct.OptContext, ptr %30, i32 0, i32 4
  %32 = getelementptr inbounds nuw %struct.anon, ptr %31, i32 0, i32 0
  store ptr %29, ptr %32, align 8
  %33 = icmp eq ptr %29, null
  br i1 %33, label %34, label %41

34:                                               ; preds = %21
  %35 = load ptr, ptr %6, align 8
  %36 = getelementptr inbounds nuw %struct.OptContext, ptr %35, i32 0, i32 4
  %37 = getelementptr inbounds nuw %struct.anon, ptr %36, i32 0, i32 0
  %38 = load ptr, ptr %6, align 8
  %39 = getelementptr inbounds nuw %struct.OptContext, ptr %38, i32 0, i32 4
  %40 = getelementptr inbounds nuw %struct.anon, ptr %39, i32 0, i32 1
  store ptr %37, ptr %40, align 8
  br label %41

41:                                               ; preds = %34, %21
  %42 = load ptr, ptr %13, align 8
  %43 = getelementptr inbounds nuw %struct.MemCopyInfo, ptr %42, i32 0, i32 1
  %44 = getelementptr inbounds nuw %struct.anon.4, ptr %43, i32 0, i32 0
  store ptr null, ptr %44, align 8
  call void @llvm.lifetime.end.p0(i64 8, ptr %13) #13
  br label %45

45:                                               ; preds = %41
  br label %46

46:                                               ; preds = %45
  br label %49

47:                                               ; preds = %5
  %48 = call ptr @tcg_malloc(i32 noundef 72)
  store ptr %48, ptr %11, align 8
  br label %49

49:                                               ; preds = %47, %46
  %50 = load ptr, ptr %11, align 8
  %51 = call ptr @memset.inline(ptr noundef %50, i32 noundef 0, i64 noundef 72) #13
  %52 = load i64, ptr %9, align 8
  %53 = load ptr, ptr %11, align 8
  %54 = getelementptr inbounds nuw %struct.MemCopyInfo, ptr %53, i32 0, i32 0
  %55 = getelementptr inbounds nuw %struct.IntervalTreeNode, ptr %54, i32 0, i32 1
  store i64 %52, ptr %55, align 8
  %56 = load i64, ptr %10, align 8
  %57 = load ptr, ptr %11, align 8
  %58 = getelementptr inbounds nuw %struct.MemCopyInfo, ptr %57, i32 0, i32 0
  %59 = getelementptr inbounds nuw %struct.IntervalTreeNode, ptr %58, i32 0, i32 2
  store i64 %56, ptr %59, align 8
  %60 = load i32, ptr %7, align 4
  %61 = load ptr, ptr %11, align 8
  %62 = getelementptr inbounds nuw %struct.MemCopyInfo, ptr %61, i32 0, i32 3
  store i32 %60, ptr %62, align 8
  %63 = load ptr, ptr %11, align 8
  %64 = getelementptr inbounds nuw %struct.MemCopyInfo, ptr %63, i32 0, i32 0
  %65 = load ptr, ptr %6, align 8
  %66 = getelementptr inbounds nuw %struct.OptContext, ptr %65, i32 0, i32 3
  call void @interval_tree_insert(ptr noundef %64, ptr noundef %66)
  %67 = load ptr, ptr %8, align 8
  %68 = call ptr @find_better_copy(ptr noundef %67)
  store ptr %68, ptr %8, align 8
  %69 = load ptr, ptr %8, align 8
  %70 = call ptr @ts_info(ptr noundef %69)
  store ptr %70, ptr %12, align 8
  %71 = load ptr, ptr %8, align 8
  %72 = load ptr, ptr %11, align 8
  %73 = getelementptr inbounds nuw %struct.MemCopyInfo, ptr %72, i32 0, i32 2
  store ptr %71, ptr %73, align 8
  br label %74

74:                                               ; preds = %49
  %75 = load ptr, ptr %11, align 8
  %76 = getelementptr inbounds nuw %struct.MemCopyInfo, ptr %75, i32 0, i32 1
  %77 = getelementptr inbounds nuw %struct.anon.4, ptr %76, i32 0, i32 0
  store ptr null, ptr %77, align 8
  %78 = load ptr, ptr %11, align 8
  %79 = load ptr, ptr %12, align 8
  %80 = getelementptr inbounds nuw %struct.TempOptInfo, ptr %79, i32 0, i32 3
  %81 = getelementptr inbounds nuw %struct.anon.3, ptr %80, i32 0, i32 1
  %82 = load ptr, ptr %81, align 8
  store ptr %78, ptr %82, align 8
  %83 = load ptr, ptr %11, align 8
  %84 = getelementptr inbounds nuw %struct.MemCopyInfo, ptr %83, i32 0, i32 1
  %85 = getelementptr inbounds nuw %struct.anon.4, ptr %84, i32 0, i32 0
  %86 = load ptr, ptr %12, align 8
  %87 = getelementptr inbounds nuw %struct.TempOptInfo, ptr %86, i32 0, i32 3
  %88 = getelementptr inbounds nuw %struct.anon.3, ptr %87, i32 0, i32 1
  store ptr %85, ptr %88, align 8
  br label %89

89:                                               ; preds = %74
  br label %90

90:                                               ; preds = %89
  call void @llvm.lifetime.end.p0(i64 8, ptr %12) #13
  call void @llvm.lifetime.end.p0(i64 8, ptr %11) #13
  ret void
}