; Function Attrs: nounwind sspstrong uwtable
define internal fastcc void @record_mem_copy(ptr noundef nonnull %0, i32 noundef %1, ptr noundef %2, i64 noundef %3, i64 noundef %4) unnamed_addr #0 {
  %6 = getelementptr inbounds nuw i8, ptr %0, i64 96
  %7 = load ptr, ptr %6, align 8
  %.not = icmp eq ptr %7, null
  br i1 %.not, label %15, label %8

8:                                                ; preds = %5
  %9 = getelementptr inbounds nuw i8, ptr %7, i64 48
  %10 = load ptr, ptr %9, align 8
  store ptr %10, ptr %6, align 8
  %11 = icmp eq ptr %10, null
  br i1 %11, label %12, label %14

12:                                               ; preds = %8
  %13 = getelementptr inbounds nuw i8, ptr %0, i64 104
  store ptr %6, ptr %13, align 8
  br label %14

14:                                               ; preds = %12, %8
  store ptr null, ptr %9, align 8
  br label %tcg_malloc.exit

15:                                               ; preds = %5
  %16 = tail call align 8 ptr @llvm.threadlocal.address.p0(ptr align 8 @tcg_ctx)
  %17 = load ptr, ptr %16, align 8
  %18 = load ptr, ptr %17, align 8
  %19 = getelementptr inbounds nuw i8, ptr %18, i64 72
  %20 = getelementptr inbounds nuw i8, ptr %17, i64 8
  %21 = load ptr, ptr %20, align 8
  %22 = icmp ugt ptr %19, %21
  br i1 %22, label %23, label %25, !prof !6

23:                                               ; preds = %15
  %24 = tail call ptr @tcg_malloc_internal(ptr noundef nonnull %17, i32 noundef 72) #9
  br label %tcg_malloc.exit

25:                                               ; preds = %15
  store ptr %19, ptr %17, align 8
  br label %tcg_malloc.exit

tcg_malloc.exit:                                  ; preds = %25, %23, %14
  %.0 = phi ptr [ %7, %14 ], [ %24, %23 ], [ %18, %25 ]
  tail call void @llvm.memset.p0.i64(ptr noundef nonnull align 1 dereferenceable(72) %.0, i8 noundef 0, i64 noundef 72, i1 noundef false) #9
  %26 = getelementptr inbounds nuw i8, ptr %.0, i64 24
  store i64 %3, ptr %26, align 8
  %27 = getelementptr inbounds nuw i8, ptr %.0, i64 32
  store i64 %4, ptr %27, align 8
  %28 = getelementptr inbounds nuw i8, ptr %.0, i64 64
  store i32 %1, ptr %28, align 8
  %29 = getelementptr inbounds nuw i8, ptr %0, i64 80
  tail call void @interval_tree_insert(ptr noundef nonnull %.0, ptr noundef nonnull %29) #9
  %.val13.i = load i64, ptr %2, align 8
  %30 = and i64 %.val13.i, 30064771072
  %31 = icmp samesign ugt i64 %30, 8589934592
  br i1 %31, label %find_better_copy.exit, label %.preheader.i

.preheader.i:                                     ; preds = %tcg_malloc.exit
  %.pn.in15.i = getelementptr i8, ptr %2, i64 48
  %.pn16.i = load ptr, ptr %.pn.in15.i, align 8
  %.011.in17.i = getelementptr inbounds nuw i8, ptr %.pn16.i, i64 16
  %.01118.i = load ptr, ptr %.011.in17.i, align 8
  %.not19.i = icmp eq ptr %.01118.i, %2
  br i1 %.not19.i, label %find_better_copy.exit, label %.lr.ph.i

.lr.ph.i:                                         ; preds = %.preheader.i, %.lr.ph.i
  %32 = phi i64 [ %41, %.lr.ph.i ], [ %.val13.i, %.preheader.i ]
  %.01121.i = phi ptr [ %.011.i, %.lr.ph.i ], [ %.01118.i, %.preheader.i ]
  %.020.i = phi ptr [ %42, %.lr.ph.i ], [ %2, %.preheader.i ]
  %33 = lshr i64 %32, 32
  %34 = trunc nuw i64 %33 to i32
  %35 = and i32 %34, 7
  %36 = load i64, ptr %.01121.i, align 8
  %37 = lshr i64 %36, 32
  %38 = trunc nuw i64 %37 to i32
  %39 = and i32 %38, 7
  %40 = icmp samesign ult i32 %35, %39
  %41 = select i1 %40, i64 %36, i64 %32
  %42 = select i1 %40, ptr %.01121.i, ptr %.020.i
  %.pn.in.i = getelementptr i8, ptr %.01121.i, i64 48
  %.pn.i = load ptr, ptr %.pn.in.i, align 8
  %.011.in.i = getelementptr inbounds nuw i8, ptr %.pn.i, i64 16
  %.011.i = load ptr, ptr %.011.in.i, align 8
  %.not.i = icmp eq ptr %.011.i, %2
  br i1 %.not.i, label %find_better_copy.exit, label %.lr.ph.i, !llvm.loop !8

find_better_copy.exit:                            ; preds = %.lr.ph.i, %tcg_malloc.exit, %.preheader.i
  %.012.i = phi ptr [ %2, %tcg_malloc.exit ], [ %2, %.preheader.i ], [ %42, %.lr.ph.i ]
  %43 = getelementptr i8, ptr %.012.i, i64 48
  %.val = load ptr, ptr %43, align 8
  %44 = getelementptr inbounds nuw i8, ptr %.0, i64 56
  store ptr %.012.i, ptr %44, align 8
  %45 = getelementptr inbounds nuw i8, ptr %.0, i64 48
  store ptr null, ptr %45, align 8
  %46 = getelementptr inbounds nuw i8, ptr %.val, i64 32
  %47 = load ptr, ptr %46, align 8
  store ptr %.0, ptr %47, align 8
  store ptr %45, ptr %46, align 8
  ret void
}